target datalayout = "e-m:e-p270:32:32-p271:32:32-p272:64:64-i64:64-i128:128-f80:128-n8:16:32:64-S128"
target triple = "x86_64-pc-linux-gnu"

%"class.std::__cxx11::basic_string" = type { %"struct.std::__cxx11::basic_string<char>::_Alloc_hider", i64, %union.anon }
%"struct.std::__cxx11::basic_string<char>::_Alloc_hider" = type { ptr }
%union.anon = type { i64, [8 x i8] }
%"struct.gmx::EnumerationArray" = type { [9 x i8] }
%struct.t_pull_coord = type { i32, %"class.std::__cxx11::basic_string", i32, %"class.std::__cxx11::basic_string", double, i32, %"struct.std::array", %"class.gmx::BasicVector.21", %"class.gmx::BasicVector.22", %"class.gmx::BasicVector.22", i8, float, float, float, float, i32 }
%"struct.std::array" = type { [6 x i32] }
%"class.gmx::BasicVector.21" = type { [3 x i32] }
%"class.gmx::BasicVector.22" = type { [3 x float] }

@_ZL14sc_isAngleType = internal constant %"struct.gmx::EnumerationArray" { [9 x i8] c"\00\00\00\00\00\01\01\01\00" }, align 1

; Function Attrs: mustprogress nounwind uwtable
define linkonce_odr noundef nonnull align 1 dereferenceable(1) ptr @_ZNK3gmx16EnumerationArrayI17PullGroupGeometrybLS1_9EEixES1_(ptr noundef nonnull align 1 dereferenceable(9) %0, i32 noundef %1) #5 comdat align 2 {
  %3 = alloca ptr, align 8
  %4 = alloca i32, align 4
  store ptr %0, ptr %3, align 8, !tbaa !196
  store i32 %1, ptr %4, align 4, !tbaa !198
  %5 = load ptr, ptr %3, align 8
  %6 = getelementptr inbounds nuw %"struct.gmx::EnumerationArray", ptr %5, i32 0, i32 0
  %7 = load i32, ptr %4, align 4, !tbaa !198
  %8 = sext i32 %7 to i64
  %9 = getelementptr inbounds nuw [9 x i8], ptr %6, i64 0, i64 %8
  ret ptr %9
}

; Function Attrs: mustprogress nounwind uwtable
define noundef double @_Z41pull_conversion_factor_userinput2internalRK12t_pull_coord(ptr noundef nonnull align 8 dereferenceable(176) %0) #5 {
  %2 = alloca double, align 8
  %3 = alloca ptr, align 8
  store ptr %0, ptr %3, align 8, !tbaa !187
  %4 = load ptr, ptr %3, align 8, !tbaa !187
  %5 = getelementptr inbounds nuw %struct.t_pull_coord, ptr %4, i32 0, i32 2
  %6 = load i32, ptr %5, align 8, !tbaa !189
  %7 = call noundef nonnull align 1 dereferenceable(1) ptr @_ZNK3gmx16EnumerationArrayI17PullGroupGeometrybLS1_9EEixES1_(ptr noundef nonnull align 1 dereferenceable(9) @_ZL14sc_isAngleType, i32 noundef %6)
  %8 = load i8, ptr %7, align 1, !tbaa !36, !range !40, !noundef !41
  %9 = trunc i8 %8 to i1
  br i1 %9, label %10, label %11

10:                                               ; preds = %1
  store double 0x3F91DF46A2529D39, ptr %2, align 8
  br label %12

11:                                               ; preds = %1
  store double 1.000000e+00, ptr %2, align 8
  br label %12

12:                                               ; preds = %11, %10
  %13 = load double, ptr %2, align 8
  ret double %13
}